target datalayout = "e-m:e-p270:32:32-p271:32:32-p272:64:64-i64:64-i128:128-f80:128-n8:16:32:64-S128"
target triple = "x86_64-pc-linux-gnu"

@_ZZN2cvL13randn_0_1_32fEPfiPmE2kn = internal global [128 x i32] zeroinitializer, align 16
@_ZZN2cvL13randn_0_1_32fEPfiPmE2wn = internal global [128 x float] zeroinitializer, align 16
@_ZZN2cvL13randn_0_1_32fEPfiPmE2fn = internal global [128 x float] zeroinitializer, align 16
@_ZZN2cvL13randn_0_1_32fEPfiPmE11initialized = internal global i8 0, align 1

; Function Attrs: mustprogress nounwind uwtable
define linkonce_odr noundef float @_ZSt3logf(float noundef %0) #4 comdat {
  %2 = alloca float, align 4
  store float %0, ptr %2, align 4
  %3 = load float, ptr %2, align 4
  %4 = call float @logf(float noundef %3) #12
  ret float %4
}

; Function Attrs: mustprogress uwtable
define internal void @_ZN2cvL13randn_0_1_32fEPfiPm(ptr noundef %0, i32 noundef %1, ptr noundef %2) #0 {
  %4 = alloca ptr, align 8
  %5 = alloca i32, align 4
  %6 = alloca ptr, align 8
  %7 = alloca float, align 4
  %8 = alloca float, align 4
  %9 = alloca i64, align 8
  %10 = alloca i32, align 4
  %11 = alloca double, align 8
  %12 = alloca double, align 8
  %13 = alloca double, align 8
  %14 = alloca double, align 8
  %15 = alloca double, align 8
  %16 = alloca float, align 4
  %17 = alloca float, align 4
  %18 = alloca i32, align 4
  %19 = alloca i32, align 4
  store ptr %0, ptr %4, align 8
  store i32 %1, ptr %5, align 4
  store ptr %2, ptr %6, align 8
  store float 0x400B8A7C60000000, ptr %7, align 4
  store float 0x3DF0000000000000, ptr %8, align 4
  %20 = load ptr, ptr %6, align 8
  %21 = load i64, ptr %20, align 8
  store i64 %21, ptr %9, align 8
  %22 = load i8, ptr @_ZZN2cvL13randn_0_1_32fEPfiPmE11initialized, align 1
  %23 = trunc i8 %22 to i1
  br i1 %23, label %95, label %24

24:                                               ; preds = %3
  store double 0x41E0000000000000, ptr %11, align 8
  store double 0x400B8A7C476D2BE8, ptr %12, align 8
  %25 = load double, ptr %12, align 8
  store double %25, ptr %13, align 8
  store double 0x3F844D09B072AAA1, ptr %14, align 8
  %26 = load double, ptr %14, align 8
  %27 = load double, ptr %12, align 8
  %28 = fmul double -5.000000e-01, %27
  %29 = load double, ptr %12, align 8
  %30 = fmul double %28, %29
  %31 = call double @exp(double noundef %30) #12
  %32 = fdiv double %26, %31
  store double %32, ptr %15, align 8
  %33 = load double, ptr %12, align 8
  %34 = load double, ptr %15, align 8
  %35 = fdiv double %33, %34
  %36 = fmul double %35, 0x41E0000000000000
  %37 = fptoui double %36 to i32
  store i32 %37, ptr @_ZZN2cvL13randn_0_1_32fEPfiPmE2kn, align 16
  store i32 0, ptr getelementptr inbounds ([128 x i32], ptr @_ZZN2cvL13randn_0_1_32fEPfiPmE2kn, i64 0, i64 1), align 4
  %38 = load double, ptr %15, align 8
  %39 = fdiv double %38, 0x41E0000000000000
  %40 = fptrunc double %39 to float
  store float %40, ptr @_ZZN2cvL13randn_0_1_32fEPfiPmE2wn, align 16
  %41 = load double, ptr %12, align 8
  %42 = fdiv double %41, 0x41E0000000000000
  %43 = fptrunc double %42 to float
  store float %43, ptr getelementptr inbounds ([128 x float], ptr @_ZZN2cvL13randn_0_1_32fEPfiPmE2wn, i64 0, i64 127), align 4
  store float 1.000000e+00, ptr @_ZZN2cvL13randn_0_1_32fEPfiPmE2fn, align 16
  %44 = load double, ptr %12, align 8
  %45 = fmul double -5.000000e-01, %44
  %46 = load double, ptr %12, align 8
  %47 = fmul double %45, %46
  %48 = call double @exp(double noundef %47) #12
  %49 = fptrunc double %48 to float
  store float %49, ptr getelementptr inbounds ([128 x float], ptr @_ZZN2cvL13randn_0_1_32fEPfiPmE2fn, i64 0, i64 127), align 4
  store i32 126, ptr %10, align 4
  br label %50

50:                                               ; preds = %91, %24
  %51 = load i32, ptr %10, align 4
  %52 = icmp sge i32 %51, 1
  br i1 %52, label %53, label %94

53:                                               ; preds = %50
  %54 = load double, ptr %14, align 8
  %55 = load double, ptr %12, align 8
  %56 = fdiv double %54, %55
  %57 = load double, ptr %12, align 8
  %58 = fmul double -5.000000e-01, %57
  %59 = load double, ptr %12, align 8
  %60 = fmul double %58, %59
  %61 = call double @exp(double noundef %60) #12
  %62 = fadd double %56, %61
  %63 = call double @log(double noundef %62) #12
  %64 = fmul double -2.000000e+00, %63
  %65 = call double @sqrt(double noundef %64) #12
  store double %65, ptr %12, align 8
  %66 = load double, ptr %12, align 8
  %67 = load double, ptr %13, align 8
  %68 = fdiv double %66, %67
  %69 = fmul double %68, 0x41E0000000000000
  %70 = fptoui double %69 to i32
  %71 = load i32, ptr %10, align 4
  %72 = add nsw i32 %71, 1
  %73 = sext i32 %72 to i64
  %74 = getelementptr inbounds [128 x i32], ptr @_ZZN2cvL13randn_0_1_32fEPfiPmE2kn, i64 0, i64 %73
  store i32 %70, ptr %74, align 4
  %75 = load double, ptr %12, align 8
  store double %75, ptr %13, align 8
  %76 = load double, ptr %12, align 8
  %77 = fmul double -5.000000e-01, %76
  %78 = load double, ptr %12, align 8
  %79 = fmul double %77, %78
  %80 = call double @exp(double noundef %79) #12
  %81 = fptrunc double %80 to float
  %82 = load i32, ptr %10, align 4
  %83 = sext i32 %82 to i64
  %84 = getelementptr inbounds [128 x float], ptr @_ZZN2cvL13randn_0_1_32fEPfiPmE2fn, i64 0, i64 %83
  store float %81, ptr %84, align 4
  %85 = load double, ptr %12, align 8
  %86 = fdiv double %85, 0x41E0000000000000
  %87 = fptrunc double %86 to float
  %88 = load i32, ptr %10, align 4
  %89 = sext i32 %88 to i64
  %90 = getelementptr inbounds [128 x float], ptr @_ZZN2cvL13randn_0_1_32fEPfiPmE2wn, i64 0, i64 %89
  store float %87, ptr %90, align 4
  br label %91

91:                                               ; preds = %53
  %92 = load i32, ptr %10, align 4
  %93 = add nsw i32 %92, -1
  store i32 %93, ptr %10, align 4
  br label %50, !llvm.loop !4

94:                                               ; preds = %50
  store i8 1, ptr @_ZZN2cvL13randn_0_1_32fEPfiPmE11initialized, align 1
  br label %95

95:                                               ; preds = %94, %3
  store i32 0, ptr %10, align 4
  br label %96

96:                                               ; preds = %230, %95
  %97 = load i32, ptr %10, align 4
  %98 = load i32, ptr %5, align 4
  %99 = icmp slt i32 %97, %98
  br i1 %99, label %100, label %233

100:                                              ; preds = %96
  br label %101

101:                                              ; preds = %223, %100
  %102 = load i64, ptr %9, align 8
  %103 = trunc i64 %102 to i32
  store i32 %103, ptr %18, align 4
  %104 = load i64, ptr %9, align 8
  %105 = trunc i64 %104 to i32
  %106 = zext i32 %105 to i64
  %107 = mul i64 %106, 4164903690
  %108 = load i64, ptr %9, align 8
  %109 = lshr i64 %108, 32
  %110 = add i64 %107, %109
  store i64 %110, ptr %9, align 8
  %111 = load i32, ptr %18, align 4
  %112 = and i32 %111, 127
  store i32 %112, ptr %19, align 4
  %113 = load i32, ptr %18, align 4
  %114 = sitofp i32 %113 to float
  %115 = load i32, ptr %19, align 4
  %116 = sext i32 %115 to i64
  %117 = getelementptr inbounds [128 x float], ptr @_ZZN2cvL13randn_0_1_32fEPfiPmE2wn, i64 0, i64 %116
  %118 = load float, ptr %117, align 4
  %119 = fmul float %114, %118
  store float %119, ptr %16, align 4
  %120 = load i32, ptr %18, align 4
  %121 = call i32 @llvm.abs.i32(i32 %120, i1 true)
  %122 = load i32, ptr %19, align 4
  %123 = sext i32 %122 to i64
  %124 = getelementptr inbounds [128 x i32], ptr @_ZZN2cvL13randn_0_1_32fEPfiPmE2kn, i64 0, i64 %123
  %125 = load i32, ptr %124, align 4
  %126 = icmp ult i32 %121, %125
  br i1 %126, label %127, label %128

127:                                              ; preds = %101
  br label %224

128:                                              ; preds = %101
  %129 = load i32, ptr %19, align 4
  %130 = icmp eq i32 %129, 0
  br i1 %130, label %131, label %185

131:                                              ; preds = %128
  br label %132

132:                                              ; preds = %166, %131
  %133 = load i64, ptr %9, align 8
  %134 = trunc i64 %133 to i32
  %135 = uitofp i32 %134 to float
  %136 = fmul float %135, 0x3DF0000000000000
  store float %136, ptr %16, align 4
  %137 = load i64, ptr %9, align 8
  %138 = trunc i64 %137 to i32
  %139 = zext i32 %138 to i64
  %140 = mul i64 %139, 4164903690
  %141 = load i64, ptr %9, align 8
  %142 = lshr i64 %141, 32
  %143 = add i64 %140, %142
  store i64 %143, ptr %9, align 8
  %144 = load i64, ptr %9, align 8
  %145 = trunc i64 %144 to i32
  %146 = uitofp i32 %145 to float
  %147 = fmul float %146, 0x3DF0000000000000
  store float %147, ptr %17, align 4
  %148 = load i64, ptr %9, align 8
  %149 = trunc i64 %148 to i32
  %150 = zext i32 %149 to i64
  %151 = mul i64 %150, 4164903690
  %152 = load i64, ptr %9, align 8
  %153 = lshr i64 %152, 32
  %154 = add i64 %151, %153
  store i64 %154, ptr %9, align 8
  %155 = load float, ptr %16, align 4
  %156 = fadd float %155, 0x3810000000000000
  %157 = call noundef float @_ZSt3logf(float noundef %156)
  %158 = fneg float %157
  %159 = fpext float %158 to double
  %160 = fmul double %159, 0x3FD2972A5390A0CD
  %161 = fptrunc double %160 to float
  store float %161, ptr %16, align 4
  %162 = load float, ptr %17, align 4
  %163 = fadd float %162, 0x3810000000000000
  %164 = call noundef float @_ZSt3logf(float noundef %163)
  %165 = fneg float %164
  store float %165, ptr %17, align 4
  br label %166

166:                                              ; preds = %132
  %167 = load float, ptr %17, align 4
  %168 = load float, ptr %17, align 4
  %169 = fadd float %167, %168
  %170 = load float, ptr %16, align 4
  %171 = load float, ptr %16, align 4
  %172 = fmul float %170, %171
  %173 = fcmp olt float %169, %172
  br i1 %173, label %132, label %174, !llvm.loop !6

174:                                              ; preds = %166
  %175 = load i32, ptr %18, align 4
  %176 = icmp sgt i32 %175, 0
  br i1 %176, label %177, label %180

177:                                              ; preds = %174
  %178 = load float, ptr %16, align 4
  %179 = fadd float 0x400B8A7C60000000, %178
  br label %183

180:                                              ; preds = %174
  %181 = load float, ptr %16, align 4
  %182 = fsub float 0xC00B8A7C60000000, %181
  br label %183

183:                                              ; preds = %180, %177
  %184 = phi float [ %179, %177 ], [ %182, %180 ]
  store float %184, ptr %16, align 4
  br label %224

185:                                              ; preds = %128
  %186 = load i64, ptr %9, align 8
  %187 = trunc i64 %186 to i32
  %188 = uitofp i32 %187 to float
  %189 = fmul float %188, 0x3DF0000000000000
  store float %189, ptr %17, align 4
  %190 = load i64, ptr %9, align 8
  %191 = trunc i64 %190 to i32
  %192 = zext i32 %191 to i64
  %193 = mul i64 %192, 4164903690
  %194 = load i64, ptr %9, align 8
  %195 = lshr i64 %194, 32
  %196 = add i64 %193, %195
  store i64 %196, ptr %9, align 8
  %197 = load i32, ptr %19, align 4
  %198 = sext i32 %197 to i64
  %199 = getelementptr inbounds [128 x float], ptr @_ZZN2cvL13randn_0_1_32fEPfiPmE2fn, i64 0, i64 %198
  %200 = load float, ptr %199, align 4
  %201 = load float, ptr %17, align 4
  %202 = load i32, ptr %19, align 4
  %203 = sub nsw i32 %202, 1
  %204 = sext i32 %203 to i64
  %205 = getelementptr inbounds [128 x float], ptr @_ZZN2cvL13randn_0_1_32fEPfiPmE2fn, i64 0, i64 %204
  %206 = load float, ptr %205, align 4
  %207 = load i32, ptr %19, align 4
  %208 = sext i32 %207 to i64
  %209 = getelementptr inbounds [128 x float], ptr @_ZZN2cvL13randn_0_1_32fEPfiPmE2fn, i64 0, i64 %208
  %210 = load float, ptr %209, align 4
  %211 = fsub float %206, %210
  %212 = call float @llvm.fmuladd.f32(float %201, float %211, float %200)
  %213 = fpext float %212 to double
  %214 = load float, ptr %16, align 4
  %215 = fpext float %214 to double
  %216 = fmul double -5.000000e-01, %215
  %217 = load float, ptr %16, align 4
  %218 = fpext float %217 to double
  %219 = fmul double %216, %218
  %220 = call double @exp(double noundef %219) #12
  %221 = fcmp olt double %213, %220
  br i1 %221, label %222, label %223

222:                                              ; preds = %185
  br label %224

223:                                              ; preds = %185
  br label %101, !llvm.loop !7

224:                                              ; preds = %222, %183, %127
  %225 = load float, ptr %16, align 4
  %226 = load ptr, ptr %4, align 8
  %227 = load i32, ptr %10, align 4
  %228 = sext i32 %227 to i64
  %229 = getelementptr inbounds float, ptr %226, i64 %228
  store float %225, ptr %229, align 4
  br label %230

230:                                              ; preds = %224
  %231 = load i32, ptr %10, align 4
  %232 = add nsw i32 %231, 1
  store i32 %232, ptr %10, align 4
  br label %96, !llvm.loop !8

233:                                              ; preds = %96
  %234 = load i64, ptr %9, align 8
  %235 = load ptr, ptr %6, align 8
  store i64 %234, ptr %235, align 8
  ret void
}