; Function Attrs: mustprogress nofree nounwind memory(readwrite, inaccessiblemem: write) uwtable
define internal fastcc void @_ZN2cvL13randn_0_1_32fEPfiPm(ptr nocapture noundef writeonly %0, i32 noundef %1, ptr nocapture noundef %2) unnamed_addr #0 {
  %4 = load i64, ptr %2, align 8
  %.b72 = load i1, ptr @_ZZN2cvL13randn_0_1_32fEPfiPmE11initialized, align 1
  br i1 %.b72, label %30, label %5

5:                                                ; preds = %3
  store i32 1991057938, ptr @_ZZN2cvL13randn_0_1_32fEPfiPmE2kn, align 16
  store i32 0, ptr getelementptr inbounds (i8, ptr @_ZZN2cvL13randn_0_1_32fEPfiPmE2kn, i64 4), align 4
  store float 0x3E1DB46680000000, ptr @_ZZN2cvL13randn_0_1_32fEPfiPmE2wn, align 16
  store float 0x3E1B8A7C40000000, ptr getelementptr inbounds (i8, ptr @_ZZN2cvL13randn_0_1_32fEPfiPmE2wn, i64 508), align 4
  store float 1.000000e+00, ptr @_ZZN2cvL13randn_0_1_32fEPfiPmE2fn, align 16
  store float 0x3F65DE9E40000000, ptr getelementptr inbounds (i8, ptr @_ZZN2cvL13randn_0_1_32fEPfiPmE2fn, i64 508), align 4
  br label %6

6:                                                ; preds = %5, %6
  %indvars.iv = phi i64 [ 126, %5 ], [ %indvars.iv.next, %6 ]
  %.06981 = phi double [ 0x400B8A7C476D2BE8, %5 ], [ %14, %6 ]
  %7 = fdiv double 0x3F844D09B072AAA1, %.06981
  %8 = fmul double %.06981, -5.000000e-01
  %9 = fmul double %.06981, %8
  %10 = tail call double @exp(double noundef %9) #19
  %11 = fadd double %7, %10
  %12 = tail call double @log(double noundef %11) #19
  %13 = fmul double %12, -2.000000e+00
  %14 = tail call double @sqrt(double noundef %13) #19
  %15 = fdiv double %14, %.06981
  %16 = fmul double %15, 0x41E0000000000000
  %17 = fptoui double %16 to i32
  %18 = add nuw nsw i64 %indvars.iv, 1
  %19 = getelementptr inbounds [128 x i32], ptr @_ZZN2cvL13randn_0_1_32fEPfiPmE2kn, i64 0, i64 %18
  store i32 %17, ptr %19, align 4
  %20 = fmul double %14, -5.000000e-01
  %21 = fmul double %14, %20
  %22 = tail call double @exp(double noundef %21) #19
  %23 = fptrunc double %22 to float
  %24 = getelementptr inbounds [128 x float], ptr @_ZZN2cvL13randn_0_1_32fEPfiPmE2fn, i64 0, i64 %indvars.iv
  store float %23, ptr %24, align 4
  %25 = fmul double %14, 0x3E00000000000000
  %26 = fptrunc double %25 to float
  %27 = getelementptr inbounds [128 x float], ptr @_ZZN2cvL13randn_0_1_32fEPfiPmE2wn, i64 0, i64 %indvars.iv
  store float %26, ptr %27, align 4
  %indvars.iv.next = add nsw i64 %indvars.iv, -1
  %28 = icmp ugt i64 %indvars.iv, 1
  br i1 %28, label %6, label %29, !llvm.loop !4

29:                                               ; preds = %6
  store i1 true, ptr @_ZZN2cvL13randn_0_1_32fEPfiPmE11initialized, align 1
  br label %30

30:                                               ; preds = %29, %3
  %31 = icmp sgt i32 %1, 0
  br i1 %31, label %.preheader73.preheader, label %._crit_edge

.preheader73.preheader:                           ; preds = %30
  %wide.trip.count = zext nneg i32 %1 to i64
  br label %.preheader73

.preheader73:                                     ; preds = %.preheader73.preheader, %.loopexit
  %indvars.iv93 = phi i64 [ 0, %.preheader73.preheader ], [ %indvars.iv.next94, %.loopexit ]
  %.084 = phi i64 [ %4, %.preheader73.preheader ], [ %.3, %.loopexit ]
  br label %32

32:                                               ; preds = %.preheader73, %81
  %.1 = phi i64 [ %88, %81 ], [ %.084, %.preheader73 ]
  %33 = trunc i64 %.1 to i32
  %34 = and i64 %.1, 4294967295
  %35 = mul nuw i64 %34, 4164903690
  %36 = lshr i64 %.1, 32
  %37 = add nuw i64 %35, %36
  %38 = and i32 %33, 127
  %39 = sitofp i32 %33 to float
  %40 = and i64 %.1, 127
  %41 = getelementptr inbounds [128 x float], ptr @_ZZN2cvL13randn_0_1_32fEPfiPmE2wn, i64 0, i64 %40
  %42 = load float, ptr %41, align 4
  %43 = fmul float %42, %39
  %44 = tail call i32 @llvm.abs.i32(i32 %33, i1 true)
  %45 = getelementptr inbounds [128 x i32], ptr @_ZZN2cvL13randn_0_1_32fEPfiPmE2kn, i64 0, i64 %40
  %46 = load i32, ptr %45, align 4
  %47 = icmp ult i32 %44, %46
  br i1 %47, label %.loopexit, label %48

48:                                               ; preds = %32
  %49 = icmp eq i32 %38, 0
  br i1 %49, label %.preheader, label %81

.preheader:                                       ; preds = %48, %.preheader
  %.2 = phi i64 [ %63, %.preheader ], [ %37, %48 ]
  %50 = trunc i64 %.2 to i32
  %51 = uitofp i32 %50 to float
  %52 = fmul float %51, 0x3DF0000000000000
  %53 = and i64 %.2, 4294967295
  %54 = mul nuw i64 %53, 4164903690
  %55 = lshr i64 %.2, 32
  %56 = add nuw i64 %54, %55
  %57 = trunc i64 %56 to i32
  %58 = uitofp i32 %57 to float
  %59 = fmul float %58, 0x3DF0000000000000
  %60 = and i64 %56, 4294967295
  %61 = mul nuw i64 %60, 4164903690
  %62 = lshr i64 %56, 32
  %63 = add nuw i64 %61, %62
  %64 = fadd float %52, 0x3810000000000000
  %65 = tail call noundef float @logf(float noundef %64) #19
  %66 = fneg float %65
  %67 = fpext float %66 to double
  %68 = fmul double %67, 0x3FD2972A5390A0CD
  %69 = fptrunc double %68 to float
  %70 = fadd float %59, 0x3810000000000000
  %71 = tail call noundef float @logf(float noundef %70) #19
  %72 = fneg float %71
  %73 = fsub float %72, %71
  %74 = fmul float %69, %69
  %75 = fcmp olt float %73, %74
  br i1 %75, label %.preheader, label %76, !llvm.loop !6

76:                                               ; preds = %.preheader
  %77 = icmp sgt i32 %33, 0
  %78 = fadd float %69, 0x400B8A7C60000000
  %79 = fsub float 0xC00B8A7C60000000, %69
  %80 = select i1 %77, float %78, float %79
  br label %.loopexit

81:                                               ; preds = %48
  %82 = trunc i64 %37 to i32
  %83 = uitofp i32 %82 to float
  %84 = fmul float %83, 0x3DF0000000000000
  %85 = and i64 %37, 4294967295
  %86 = mul nuw i64 %85, 4164903690
  %87 = lshr i64 %37, 32
  %88 = add nuw i64 %86, %87
  %89 = getelementptr inbounds [128 x float], ptr @_ZZN2cvL13randn_0_1_32fEPfiPmE2fn, i64 0, i64 %40
  %90 = load float, ptr %89, align 4
  %91 = add nsw i32 %38, -1
  %92 = zext nneg i32 %91 to i64
  %93 = getelementptr inbounds [128 x float], ptr @_ZZN2cvL13randn_0_1_32fEPfiPmE2fn, i64 0, i64 %92
  %94 = load float, ptr %93, align 4
  %95 = fsub float %94, %90
  %96 = tail call float @llvm.fmuladd.f32(float %84, float %95, float %90)
  %97 = fpext float %96 to double
  %98 = fpext float %43 to double
  %99 = fmul double %98, -5.000000e-01
  %100 = fmul double %99, %98
  %101 = tail call double @exp(double noundef %100) #19
  %102 = fcmp ogt double %101, %97
  br i1 %102, label %.loopexit, label %32, !llvm.loop !7

.loopexit:                                        ; preds = %81, %32, %76
  %.068 = phi float [ %80, %76 ], [ %43, %32 ], [ %43, %81 ]
  %.3 = phi i64 [ %63, %76 ], [ %88, %81 ], [ %37, %32 ]
  %103 = getelementptr inbounds float, ptr %0, i64 %indvars.iv93
  store float %.068, ptr %103, align 4
  %indvars.iv.next94 = add nuw nsw i64 %indvars.iv93, 1
  %exitcond.not = icmp eq i64 %indvars.iv.next94, %wide.trip.count
  br i1 %exitcond.not, label %._crit_edge, label %.preheader73, !llvm.loop !8

._crit_edge:                                      ; preds = %.loopexit, %30
  %.0.lcssa = phi i64 [ %4, %30 ], [ %.3, %.loopexit ]
  store i64 %.0.lcssa, ptr %2, align 8
  ret void
}